ASxxxx Linker V03.00 + NoICE + sdld,  page 1.
Hexadecimal  [32-Bits]

Area                                    Addr        Size        Decimal Bytes (Attributes)
--------------------------------        ----        ----        ------- ----- ------------
.  .ABS.                            00000000    00000000 =           0. bytes (ABS,CON)

      Value  Global                              Global Defined In Module
      -----  --------------------------------   ------------------------
     FFFFFFFF  s_SSEG                          
     00000000  .__.ABS.                           HW_INIT
     00000000  ERR_NONE                           HW_INIT
     00000000  FSYS_TIMER                         HW_INIT
     00000000  SPI_CS_RAM                         HW_INIT
     00000000  SYS_RST                            HW_INIT
     00000000  l_DATA                          
     00000000  l_DATA5                         
     00000000  l_SSEG                          
     00000000  l__CODE                         
     00000000  s_DATA0                         
     00000000  s_DATA2                         
     00000000  s_DATA3                         
     00000000  s_DATA4                         
     00000000  s_DATA5                         
     00000000  s_SSEG1                         
     00000000  s__CODE                         
     00000001  ERR_SYNTAX                         HW_INIT
     00000001  FSYS_TONE                          HW_INIT
     00000001  SPI_CS_FLASH                       HW_INIT
     00000001  s_DATA                          
     00000002  CELL_SIZE                          HW_INIT
     00000002  ERR_GT32767                        HW_INIT
     00000002  FSYS_UPPER                         HW_INIT
     00000002  INT_SIZE                           HW_INIT
     00000002  PUTC                               HW_INIT
     00000003  ERR_GT255                          HW_INIT
     00000003  GETC                               HW_INIT
     00000004  ERR_BAD_BRANCH                     HW_INIT
     00000004  QCHAR                              HW_INIT
     00000004  l_DATA2                         
     00000005  CLS                                HW_INIT
     00000005  ERR_BAD_RETURN                     HW_INIT
     00000006  DELBK                              HW_INIT
     00000006  ERR_BAD_NEXT                       HW_INIT
     00000007  ERR_GOSUBS                         HW_INIT
     00000007  GETLN                              HW_INIT
     00000008  ERR_FORS                           HW_INIT
     00000008  PRT_STR                            HW_INIT
     00000008  RX_QUEUE_SIZE                      HW_INIT
     00000009  ERR_END                            HW_INIT
     00000009  PRT_INT                            HW_INIT
     0000000A  ERR_MEM_FULL                       HW_INIT
     0000000A  SET_TIMER                          HW_INIT
     0000000B  CHK_TIMOUT                         HW_INIT
     0000000B  ERR_TOO_LONG                       HW_INIT
     0000000C  ERR_DIM                            HW_INIT
     0000000C  START_TONE                         HW_INIT
     0000000D  ERR_RANGE                          HW_INIT
     0000000D  GET_RND                            HW_INIT
ASxxxx Linker V03.00 + NoICE + sdld,  page 2.
Hexadecimal  [32-Bits]

Area                                    Addr        Size        Decimal Bytes (Attributes)
--------------------------------        ----        ----        ------- ----- ------------
.  .ABS.                            00000000    00000000 =           0. bytes (ABS,CON)

      Value  Global                              Global Defined In Module
      -----  --------------------------------   ------------------------
     0000000E  ERR_STR_OVFL                       HW_INIT
     0000000E  SEED_PRNG                          HW_INIT
     0000000E  TERMIOS_VARS_SIZE                  HW_INIT
     0000000E  l_DATA3                         
     0000000F  ERR_STRING                         HW_INIT
     00000010  ERR_RETYPE                         HW_INIT
     00000011  ERR_PROG_ONLY                      HW_INIT
     00000012  ERR_DIV0                           HW_INIT
     00000012  SYS_VARS_SIZE                      HW_INIT
     00000012  l_DATA0                         
     00000028  APP_VARS_START_ADR                 HW_INIT
     0000002C  l_DATA4                         
     00000080  l_HOME                          
     00000180  l_SSEG1                         
     00002480  l_CODE                          
     00008000  s_HOME                          
     00008080  s_CODE                          

ASxxxx Linker V03.00 + NoICE + sdld,  page 3.
Hexadecimal  [32-Bits]

Area                                    Addr        Size        Decimal Bytes (Attributes)
--------------------------------        ----        ----        ------- ----- ------------
DATA0                               00000000    00000012 =          18. bytes (ABS,CON)

      Value  Global                              Global Defined In Module
      -----  --------------------------------   ------------------------
     00000012  ptr16                              HW_INIT

ASxxxx Linker V03.00 + NoICE + sdld,  page 4.
Hexadecimal  [32-Bits]

Area                                    Addr        Size        Decimal Bytes (Attributes)
--------------------------------        ----        ----        ------- ----- ------------
HOME                                00008000    00000080 =         128. bytes (REL,CON)

      Value  Global                              Global Defined In Module
      -----  --------------------------------   ------------------------
ASxxxx Linker V03.00 + NoICE + sdld,  page 5.
Hexadecimal  [32-Bits]

Area                                    Addr        Size        Decimal Bytes (Attributes)
--------------------------------        ----        ----        ------- ----- ------------
CODE                                00008080    00002480 =        9344. bytes (REL,CON)

      Value  Global                              Global Defined In Module
      -----  --------------------------------   ------------------------
     000080EE  set_int_priority                   HW_INIT
     000081E7  TrapHandler                        HW_INIT
     000082AA  beep_1khz                          HW_INIT
     000082B9  tone                               HW_INIT
     0000832E  prng                               HW_INIT
     00008541  uart_putc                          HW_INIT
     0000854A  qgetc                              HW_INIT
     0000854A  uart_qgetc                         HW_INIT
     00008550  getc                               HW_INIT
     00008550  uart_getc                          HW_INIT
     000085A3  puts                               HW_INIT
     0000860C  spaces                             HW_INIT
     00008679  readln                             HW_INIT
     00008811  to_hex_char                        HW_INIT
     0000881C  print_hex                          HW_INIT
     00008839  itoa                               HW_INIT
     00008886  strlen                             HW_INIT
     00008891  strcmp                             HW_INIT
     000088A0  strcpy                             HW_INIT
     000088B0  move                               HW_INIT
     000088FF  is_alpha                           HW_INIT
     00008910  is_digit                           HW_INIT
     00008919  is_hex_digit                       HW_INIT
     00008927  is_alnum                           HW_INIT
     000089CD  WOZMON                             HW_INIT
     00008B2C  search_lineno                      HW_INIT
     00008C7F  escaped                            HW_INIT
     00008F15  compile                            HW_INIT
     00008FAF  right_align                        HW_INIT
     00009046  decompile                          HW_INIT
     00009225  syntax_error                       HW_INIT
     00009227  tb_error                           HW_INIT
     0000931C  P1BASIC                            HW_INIT
     000093B1  kword_remark                       HW_INIT
     00009423  atoi16                             HW_INIT
     0000946B  search_dict                        HW_INIT
     0000968D  kword_let                          HW_INIT
     0000A19B  cmd_call                           HW_INIT
     0000A44C  kword_dict                         HW_INIT
ASxxxx Linker V03.00 + NoICE + sdld,  page 6.
Hexadecimal  [32-Bits]

Area                                    Addr        Size        Decimal Bytes (Attributes)
--------------------------------        ----        ----        ------- ----- ------------
SSEG1                               00000000    00000180 =         384. bytes (ABS,CON)

      Value  Global                              Global Defined In Module
      -----  --------------------------------   ------------------------
     00001680  tib                                HW_INIT
     00001700  block_buffer                       HW_INIT
     00001700  pad                                HW_INIT
     00001780  stack_full                         HW_INIT

ASxxxx Linker V03.00 + NoICE + sdld,  page 7.
Hexadecimal  [32-Bits]

Area                                    Addr        Size        Decimal Bytes (Attributes)
--------------------------------        ----        ----        ------- ----- ------------
DATA2                               00000000    00000004 =           4. bytes (ABS,CON)

      Value  Global                              Global Defined In Module
      -----  --------------------------------   ------------------------
ASxxxx Linker V03.00 + NoICE + sdld,  page 8.
Hexadecimal  [32-Bits]

Area                                    Addr        Size        Decimal Bytes (Attributes)
--------------------------------        ----        ----        ------- ----- ------------
DATA3                               00000000    0000000E =          14. bytes (ABS,CON)

      Value  Global                              Global Defined In Module
      -----  --------------------------------   ------------------------
ASxxxx Linker V03.00 + NoICE + sdld,  page 9.
Hexadecimal  [32-Bits]

Area                                    Addr        Size        Decimal Bytes (Attributes)
--------------------------------        ----        ----        ------- ----- ------------
DATA4                               00000000    0000002C =          44. bytes (ABS,CON)

      Value  Global                              Global Defined In Module
      -----  --------------------------------   ------------------------
     00000028  in.w                               HW_INIT
     00000029  in                                 HW_INIT
     0000002A  count                              HW_INIT
     0000002B  line.addr                          HW_INIT
     0000002D  basicptr                           HW_INIT
     0000002F  lomem                              HW_INIT
     00000031  himem                              HW_INIT
     00000033  progend                            HW_INIT
     00000035  dvar_bgn                           HW_INIT
     00000037  dvar_end                           HW_INIT
     00000039  heap_free                          HW_INIT
     0000003B  flags                              HW_INIT
ASxxxx Linker V03.00 + NoICE + sdld,  page 10.

Files Linked                              [ module(s) ]

build/stm8s207k8/pomme_1.rel              [ HW_INIT ]

ASxxxx Linker V03.00 + NoICE + sdld,  page 11.

User Base Address Definitions

HOME = 0x8000
DATA = 0x0001
SSEG = 0xffffffff

